target datalayout = "e-m:e-p270:32:32-p271:32:32-p272:64:64-i64:64-i128:128-f80:128-n8:16:32:64-S128"
target triple = "x86_64-pc-linux-gnu"

%struct.AVFilterContext = type { ptr, ptr, ptr, ptr, ptr, i32, ptr, ptr, i32, ptr, ptr, i32, i32, ptr, ptr, ptr, ptr, i32, ptr, i32, i32 }
%struct.ReadEIA608Context = type { ptr, i32, i32, float, i32, i32, i32, i32, i32, ptr, [2 x ptr] }
%struct.ScanItem = type { i32, i32, i32, i32, ptr, [2 x i8], ptr, ptr }

; Function Attrs: cold nounwind optsize uwtable
define internal void @uninit(ptr noundef %0) #0 {
  %2 = alloca ptr, align 8
  %3 = alloca ptr, align 8
  %4 = alloca i32, align 4
  %5 = alloca ptr, align 8
  store ptr %0, ptr %2, align 8, !tbaa !4
  call void @llvm.lifetime.start.p0(i64 8, ptr %3) #8
  %6 = load ptr, ptr %2, align 8, !tbaa !4
  %7 = getelementptr inbounds nuw %struct.AVFilterContext, ptr %6, i32 0, i32 9
  %8 = load ptr, ptr %7, align 8, !tbaa !9
  store ptr %8, ptr %3, align 8, !tbaa !22
  call void @llvm.lifetime.start.p0(i64 4, ptr %4) #8
  store i32 0, ptr %4, align 4, !tbaa !24
  br label %9

9:                                                ; preds = %29, %1
  %10 = load i32, ptr %4, align 4, !tbaa !24
  %11 = load ptr, ptr %3, align 8, !tbaa !22
  %12 = getelementptr inbounds nuw %struct.ReadEIA608Context, ptr %11, i32 0, i32 8
  %13 = load i32, ptr %12, align 4, !tbaa !25
  %14 = icmp slt i32 %10, %13
  br i1 %14, label %16, label %15

15:                                               ; preds = %9
  call void @llvm.lifetime.end.p0(i64 4, ptr %4) #8
  br label %32

16:                                               ; preds = %9
  call void @llvm.lifetime.start.p0(i64 8, ptr %5) #8
  %17 = load ptr, ptr %3, align 8, !tbaa !22
  %18 = getelementptr inbounds nuw %struct.ReadEIA608Context, ptr %17, i32 0, i32 9
  %19 = load ptr, ptr %18, align 8, !tbaa !29
  %20 = load i32, ptr %4, align 4, !tbaa !24
  %21 = sext i32 %20 to i64
  %22 = getelementptr inbounds %struct.ScanItem, ptr %19, i64 %21
  store ptr %22, ptr %5, align 8, !tbaa !30
  %23 = load ptr, ptr %5, align 8, !tbaa !30
  %24 = getelementptr inbounds nuw %struct.ScanItem, ptr %23, i32 0, i32 4
  call void @av_freep(ptr noundef %24)
  %25 = load ptr, ptr %5, align 8, !tbaa !30
  %26 = getelementptr inbounds nuw %struct.ScanItem, ptr %25, i32 0, i32 6
  call void @av_freep(ptr noundef %26)
  %27 = load ptr, ptr %5, align 8, !tbaa !30
  %28 = getelementptr inbounds nuw %struct.ScanItem, ptr %27, i32 0, i32 7
  call void @av_freep(ptr noundef %28)
  call void @llvm.lifetime.end.p0(i64 8, ptr %5) #8
  br label %29

29:                                               ; preds = %16
  %30 = load i32, ptr %4, align 4, !tbaa !24
  %31 = add nsw i32 %30, 1
  store i32 %31, ptr %4, align 4, !tbaa !24
  br label %9, !llvm.loop !31

32:                                               ; preds = %15
  %33 = load ptr, ptr %3, align 8, !tbaa !22
  %34 = getelementptr inbounds nuw %struct.ReadEIA608Context, ptr %33, i32 0, i32 8
  store i32 0, ptr %34, align 4, !tbaa !25
  %35 = load ptr, ptr %3, align 8, !tbaa !22
  %36 = getelementptr inbounds nuw %struct.ReadEIA608Context, ptr %35, i32 0, i32 9
  call void @av_freep(ptr noundef %36)
  call void @llvm.lifetime.end.p0(i64 8, ptr %3) #8
  ret void
}