; Function Attrs: cold nounwind optsize uwtable
define internal void @uninit(ptr noundef readonly captures(none) %0) #0 {
  %2 = getelementptr inbounds nuw i8, ptr %0, i64 72
  %3 = load ptr, ptr %2, align 8, !tbaa !4
  %4 = getelementptr inbounds nuw i8, ptr %3, i64 36
  %5 = load i32, ptr %4, align 4, !tbaa !20
  %6 = icmp sgt i32 %5, 0
  br i1 %6, label %.lr.ph, label %._crit_edge

.lr.ph:                                           ; preds = %1
  %7 = getelementptr inbounds nuw i8, ptr %3, i64 40
  br label %9

._crit_edge:                                      ; preds = %9, %1
  store i32 0, ptr %4, align 4, !tbaa !20
  %8 = getelementptr inbounds nuw i8, ptr %3, i64 40
  tail call void @av_freep(ptr noundef nonnull %8) #10
  ret void

9:                                                ; preds = %.lr.ph, %9
  %indvars.iv = phi i64 [ 0, %.lr.ph ], [ %indvars.iv.next, %9 ]
  %10 = load ptr, ptr %7, align 8, !tbaa !24
  %11 = getelementptr inbounds nuw %struct.ScanItem, ptr %10, i64 %indvars.iv
  %12 = getelementptr inbounds nuw i8, ptr %11, i64 16
  tail call void @av_freep(ptr noundef nonnull %12) #10
  %13 = getelementptr inbounds nuw i8, ptr %11, i64 32
  tail call void @av_freep(ptr noundef nonnull %13) #10
  %14 = getelementptr inbounds nuw i8, ptr %11, i64 40
  tail call void @av_freep(ptr noundef nonnull %14) #10
  %indvars.iv.next = add nuw nsw i64 %indvars.iv, 1
  %15 = load i32, ptr %4, align 4, !tbaa !20
  %16 = sext i32 %15 to i64
  %17 = icmp slt i64 %indvars.iv.next, %16
  br i1 %17, label %9, label %._crit_edge, !llvm.loop !25
}